target datalayout = "e-m:e-p270:32:32-p271:32:32-p272:64:64-i64:64-i128:128-f80:128-n8:16:32:64-S128"
target triple = "x86_64-pc-linux-gnu"

%struct._object = type { %union.anon, ptr }
%union.anon = type { i64 }
%struct._typeobject = type { %struct.PyVarObject, ptr, i64, i64, ptr, i64, ptr, ptr, ptr, ptr, ptr, ptr, ptr, ptr, ptr, ptr, ptr, ptr, ptr, i64, ptr, ptr, ptr, ptr, i64, ptr, ptr, ptr, ptr, ptr, ptr, ptr, ptr, ptr, i64, ptr, ptr, ptr, ptr, ptr, ptr, ptr, ptr, ptr, ptr, ptr, i32, ptr, ptr, i8, i16 }
%struct.PyVarObject = type { %struct._object, i64 }

@_PyWeakref_RefType = external global %struct._typeobject, align 8
@_PyWeakref_ProxyType = external global %struct._typeobject, align 8
@_PyWeakref_CallableProxyType = external global %struct._typeobject, align 8
@.str.11 = private unnamed_addr constant [4 x i8] c"ref\00", align 1
@.str.12 = private unnamed_addr constant [14 x i8] c"ReferenceType\00", align 1
@.str.13 = private unnamed_addr constant [10 x i8] c"ProxyType\00", align 1
@.str.14 = private unnamed_addr constant [18 x i8] c"CallableProxyType\00", align 1

; Function Attrs: nounwind uwtable
define internal i32 @weakref_exec(ptr noundef %0) #0 {
  %2 = alloca i32, align 4
  %3 = alloca ptr, align 8
  store ptr %0, ptr %3, align 8, !tbaa !4
  %4 = load ptr, ptr %3, align 8, !tbaa !4
  %5 = call i32 @PyModule_AddObjectRef(ptr noundef %4, ptr noundef @.str.11, ptr noundef @_PyWeakref_RefType)
  %6 = icmp slt i32 %5, 0
  br i1 %6, label %7, label %8

7:                                                ; preds = %1
  store i32 -1, ptr %2, align 4
  br label %24

8:                                                ; preds = %1
  %9 = load ptr, ptr %3, align 8, !tbaa !4
  %10 = call i32 @PyModule_AddObjectRef(ptr noundef %9, ptr noundef @.str.12, ptr noundef @_PyWeakref_RefType)
  %11 = icmp slt i32 %10, 0
  br i1 %11, label %12, label %13

12:                                               ; preds = %8
  store i32 -1, ptr %2, align 4
  br label %24

13:                                               ; preds = %8
  %14 = load ptr, ptr %3, align 8, !tbaa !4
  %15 = call i32 @PyModule_AddObjectRef(ptr noundef %14, ptr noundef @.str.13, ptr noundef @_PyWeakref_ProxyType)
  %16 = icmp slt i32 %15, 0
  br i1 %16, label %17, label %18

17:                                               ; preds = %13
  store i32 -1, ptr %2, align 4
  br label %24

18:                                               ; preds = %13
  %19 = load ptr, ptr %3, align 8, !tbaa !4
  %20 = call i32 @PyModule_AddObjectRef(ptr noundef %19, ptr noundef @.str.14, ptr noundef @_PyWeakref_CallableProxyType)
  %21 = icmp slt i32 %20, 0
  br i1 %21, label %22, label %23

22:                                               ; preds = %18
  store i32 -1, ptr %2, align 4
  br label %24

23:                                               ; preds = %18
  store i32 0, ptr %2, align 4
  br label %24

24:                                               ; preds = %23, %22, %17, %12, %7
  %25 = load i32, ptr %2, align 4
  ret i32 %25
}