; Function Attrs: nounwind uwtable
define internal range(i32 -1, 1) i32 @weakref_exec(ptr noundef %0) #0 {
  %2 = tail call i32 @PyModule_AddObjectRef(ptr noundef %0, ptr noundef nonnull @.str.11, ptr noundef nonnull @_PyWeakref_RefType) #3
  %3 = icmp slt i32 %2, 0
  br i1 %3, label %12, label %4

4:                                                ; preds = %1
  %5 = tail call i32 @PyModule_AddObjectRef(ptr noundef %0, ptr noundef nonnull @.str.12, ptr noundef nonnull @_PyWeakref_RefType) #3
  %6 = icmp slt i32 %5, 0
  br i1 %6, label %12, label %7

7:                                                ; preds = %4
  %8 = tail call i32 @PyModule_AddObjectRef(ptr noundef %0, ptr noundef nonnull @.str.13, ptr noundef nonnull @_PyWeakref_ProxyType) #3
  %9 = icmp slt i32 %8, 0
  br i1 %9, label %12, label %10

10:                                               ; preds = %7
  %11 = tail call i32 @PyModule_AddObjectRef(ptr noundef %0, ptr noundef nonnull @.str.14, ptr noundef nonnull @_PyWeakref_CallableProxyType) #3
  %.lobit = ashr i32 %11, 31
  br label %12

12:                                               ; preds = %10, %7, %4, %1
  %.0 = phi i32 [ -1, %1 ], [ -1, %4 ], [ -1, %7 ], [ %.lobit, %10 ]
  ret i32 %.0
}